; Function Attrs: mustprogress uwtable
define hidden noundef nonnull ptr @_ZN2cv5utils7logging13LogTagManager9NameTable24internal_getNamePartInfoEm(ptr noundef nonnull readonly align 8 captures(none) dereferenceable(272) %0, i64 noundef %1) local_unnamed_addr #0 align 2 {
  %3 = getelementptr inbounds nuw i8, ptr %0, i64 24
  %4 = getelementptr inbounds nuw i8, ptr %0, i64 32
  %5 = load ptr, ptr %4, align 8, !tbaa !124
  %6 = load ptr, ptr %3, align 8, !tbaa !95
  %7 = ptrtoint ptr %5 to i64
  %8 = ptrtoint ptr %6 to i64
  %9 = sub i64 %7, %8
  %10 = ashr exact i64 %9, 3
  %.not.i.i = icmp ult i64 %1, %10
  br i1 %.not.i.i, label %_ZNSt6vectorIN2cv5utils7logging13LogTagManager12NamePartInfoESaIS4_EE2atEm.exit, label %11

11:                                               ; preds = %2
  tail call void (ptr, ...) @_ZSt24__throw_out_of_range_fmtPKcz(ptr noundef nonnull @.str.14, i64 noundef %1, i64 noundef %10) #25
  unreachable

_ZNSt6vectorIN2cv5utils7logging13LogTagManager12NamePartInfoESaIS4_EE2atEm.exit: ; preds = %2
  %12 = getelementptr inbounds nuw %"struct.cv::utils::logging::LogTagManager::NamePartInfo", ptr %6, i64 %1
  ret ptr %12
}